target datalayout = "e-m:e-p270:32:32-p271:32:32-p272:64:64-i64:64-i128:128-f80:128-n8:16:32:64-S128"
target triple = "x86_64-unknown-linux-gnu"

%class.b3CpuNarrowPhase = type <{ ptr, ptr, i32, i32, i32, [4 x i8] }>
%struct.b3CpuNarrowPhaseInternalData = type { %class.b3AlignedObjectArray, %class.b3AlignedObjectArray.0, %class.b3AlignedObjectArray.4, %struct.b3Config, %class.b3AlignedObjectArray.8, %class.b3AlignedObjectArray.12, %class.b3AlignedObjectArray.12, %class.b3AlignedObjectArray.16, %class.b3AlignedObjectArray.20, %class.b3AlignedObjectArray.24, i32, [4 x i8] }
%class.b3AlignedObjectArray = type <{ %class.b3AlignedAllocator, [3 x i8], i32, i32, [4 x i8], ptr, i8, [7 x i8] }>
%class.b3AlignedAllocator = type { i8 }
%class.b3AlignedObjectArray.0 = type <{ %class.b3AlignedAllocator.1, [3 x i8], i32, i32, [4 x i8], ptr, i8, [7 x i8] }>
%class.b3AlignedAllocator.1 = type { i8 }
%class.b3AlignedObjectArray.4 = type <{ %class.b3AlignedAllocator.5, [3 x i8], i32, i32, [4 x i8], ptr, i8, [7 x i8] }>
%class.b3AlignedAllocator.5 = type { i8 }
%struct.b3Config = type { i32, i32, i32, i32, i32, i32, i32, i32, i32, i32, i32, i32 }
%class.b3AlignedObjectArray.8 = type <{ %class.b3AlignedAllocator.9, [3 x i8], i32, i32, [4 x i8], ptr, i8, [7 x i8] }>
%class.b3AlignedAllocator.9 = type { i8 }
%class.b3AlignedObjectArray.12 = type <{ %class.b3AlignedAllocator.13, [3 x i8], i32, i32, [4 x i8], ptr, i8, [7 x i8] }>
%class.b3AlignedAllocator.13 = type { i8 }
%class.b3AlignedObjectArray.16 = type <{ %class.b3AlignedAllocator.17, [3 x i8], i32, i32, [4 x i8], ptr, i8, [7 x i8] }>
%class.b3AlignedAllocator.17 = type { i8 }
%class.b3AlignedObjectArray.20 = type <{ %class.b3AlignedAllocator.21, [3 x i8], i32, i32, [4 x i8], ptr, i8, [7 x i8] }>
%class.b3AlignedAllocator.21 = type { i8 }
%class.b3AlignedObjectArray.24 = type <{ %class.b3AlignedAllocator.25, [3 x i8], i32, i32, [4 x i8], ptr, i8, [7 x i8] }>
%class.b3AlignedAllocator.25 = type { i8 }
%struct.b3Collidable = type { %union.anon, %union.anon.28, i32, %union.anon.29 }
%union.anon = type { i32 }
%union.anon.28 = type { float }
%union.anon.29 = type { i32 }

@.str = private unnamed_addr constant [17 x i8] c"b3Error[%s,%d]:\0A\00", align 1
@.str.1 = private unnamed_addr constant [156 x i8] c"generated/home/dtcxzyw/WorkSpace/Projects/compilers/llvm-opt-benchmark/bench/bullet3/bullet3/src/Bullet3Collision/NarrowPhaseCollision/b3CpuNarrowPhase.cpp\00", align 1
@.str.2 = private unnamed_addr constant [36 x i8] c"allocateCollidable out-of-range %d\0A\00", align 1

; Function Attrs: mustprogress nounwind uwtable
define linkonce_odr dso_local noundef i32 @_ZN20b3AlignedObjectArrayI12b3CollidableE9allocSizeEi(ptr noundef nonnull align 8 dereferenceable(25) %this, i32 noundef %size) #0 comdat align 2 {
entry:
  %this.addr = alloca ptr, align 8
  %size.addr = alloca i32, align 4
  store ptr %this, ptr %this.addr, align 8
  store i32 %size, ptr %size.addr, align 4
  %0 = load i32, ptr %size.addr, align 4
  %tobool = icmp ne i32 %0, 0
  br i1 %tobool, label %cond.true, label %cond.false

cond.true:                                        ; preds = %entry
  %1 = load i32, ptr %size.addr, align 4
  %mul = mul nsw i32 %1, 2
  br label %cond.end

cond.false:                                       ; preds = %entry
  br label %cond.end

cond.end:                                         ; preds = %cond.false, %cond.true
  %cond = phi i32 [ %mul, %cond.true ], [ 1, %cond.false ]
  ret i32 %cond
}

; Function Attrs: mustprogress nounwind uwtable
define linkonce_odr dso_local noundef i32 @_ZNK20b3AlignedObjectArrayI12b3CollidableE8capacityEv(ptr noundef nonnull align 8 dereferenceable(25) %this) #0 comdat align 2 {
entry:
  %this.addr = alloca ptr, align 8
  store ptr %this, ptr %this.addr, align 8
  %this1 = load ptr, ptr %this.addr, align 8
  %m_capacity = getelementptr inbounds %class.b3AlignedObjectArray.0, ptr %this1, i32 0, i32 3
  %0 = load i32, ptr %m_capacity, align 8
  ret i32 %0
}

; Function Attrs: mustprogress uwtable
define linkonce_odr dso_local noundef nonnull align 4 dereferenceable(16) ptr @_ZN20b3AlignedObjectArrayI12b3CollidableE6expandERKS0_(ptr noundef nonnull align 8 dereferenceable(25) %this, ptr noundef nonnull align 4 dereferenceable(16) %fillValue) #1 comdat align 2 {
entry:
  %this.addr = alloca ptr, align 8
  %fillValue.addr = alloca ptr, align 8
  %sz = alloca i32, align 4
  store ptr %this, ptr %this.addr, align 8
  store ptr %fillValue, ptr %fillValue.addr, align 8
  %this1 = load ptr, ptr %this.addr, align 8
  %call = call noundef i32 @_ZNK20b3AlignedObjectArrayI12b3CollidableE4sizeEv(ptr noundef nonnull align 8 dereferenceable(25) %this1)
  store i32 %call, ptr %sz, align 4
  %0 = load i32, ptr %sz, align 4
  %call2 = call noundef i32 @_ZNK20b3AlignedObjectArrayI12b3CollidableE8capacityEv(ptr noundef nonnull align 8 dereferenceable(25) %this1)
  %cmp = icmp eq i32 %0, %call2
  br i1 %cmp, label %if.then, label %if.end

if.then:                                          ; preds = %entry
  %call3 = call noundef i32 @_ZNK20b3AlignedObjectArrayI12b3CollidableE4sizeEv(ptr noundef nonnull align 8 dereferenceable(25) %this1)
  %call4 = call noundef i32 @_ZN20b3AlignedObjectArrayI12b3CollidableE9allocSizeEi(ptr noundef nonnull align 8 dereferenceable(25) %this1, i32 noundef %call3)
  call void @_ZN20b3AlignedObjectArrayI12b3CollidableE7reserveEi(ptr noundef nonnull align 8 dereferenceable(25) %this1, i32 noundef %call4)
  br label %if.end

if.end:                                           ; preds = %if.then, %entry
  %m_size = getelementptr inbounds %class.b3AlignedObjectArray.0, ptr %this1, i32 0, i32 2
  %1 = load i32, ptr %m_size, align 4
  %inc = add nsw i32 %1, 1
  store i32 %inc, ptr %m_size, align 4
  %m_data = getelementptr inbounds %class.b3AlignedObjectArray.0, ptr %this1, i32 0, i32 5
  %2 = load ptr, ptr %m_data, align 8
  %3 = load i32, ptr %sz, align 4
  %idxprom = sext i32 %3 to i64
  %arrayidx = getelementptr inbounds %struct.b3Collidable, ptr %2, i64 %idxprom
  %4 = load ptr, ptr %fillValue.addr, align 8
  call void @llvm.memcpy.p0.p0.i64(ptr align 4 %arrayidx, ptr align 4 %4, i64 16, i1 false)
  %m_data5 = getelementptr inbounds %class.b3AlignedObjectArray.0, ptr %this1, i32 0, i32 5
  %5 = load ptr, ptr %m_data5, align 8
  %6 = load i32, ptr %sz, align 4
  %idxprom6 = sext i32 %6 to i64
  %arrayidx7 = getelementptr inbounds %struct.b3Collidable, ptr %5, i64 %idxprom6
  ret ptr %arrayidx7
}

; Function Attrs: mustprogress nounwind uwtable
define linkonce_odr dso_local noundef i32 @_ZNK20b3AlignedObjectArrayI12b3CollidableE4sizeEv(ptr noundef nonnull align 8 dereferenceable(25) %this) #0 comdat align 2 {
entry:
  %this.addr = alloca ptr, align 8
  store ptr %this, ptr %this.addr, align 8
  %this1 = load ptr, ptr %this.addr, align 8
  %m_size = getelementptr inbounds %class.b3AlignedObjectArray.0, ptr %this1, i32 0, i32 2
  %0 = load i32, ptr %m_size, align 4
  ret i32 %0
}

; Function Attrs: mustprogress uwtable
define dso_local noundef i32 @_ZN16b3CpuNarrowPhase18allocateCollidableEv(ptr noundef nonnull align 8 dereferenceable(28) %this) #1 align 2 {
entry:
  %retval = alloca i32, align 4
  %this.addr = alloca ptr, align 8
  %curSize = alloca i32, align 4
  %ref.tmp = alloca %struct.b3Collidable, align 4
  store ptr %this, ptr %this.addr, align 8
  %this1 = load ptr, ptr %this.addr, align 8
  %m_data = getelementptr inbounds %class.b3CpuNarrowPhase, ptr %this1, i32 0, i32 1
  %0 = load ptr, ptr %m_data, align 8
  %m_collidablesCPU = getelementptr inbounds %struct.b3CpuNarrowPhaseInternalData, ptr %0, i32 0, i32 1
  %call = call noundef i32 @_ZNK20b3AlignedObjectArrayI12b3CollidableE4sizeEv(ptr noundef nonnull align 8 dereferenceable(25) %m_collidablesCPU)
  store i32 %call, ptr %curSize, align 4
  %1 = load i32, ptr %curSize, align 4
  %m_data2 = getelementptr inbounds %class.b3CpuNarrowPhase, ptr %this1, i32 0, i32 1
  %2 = load ptr, ptr %m_data2, align 8
  %m_config = getelementptr inbounds %struct.b3CpuNarrowPhaseInternalData, ptr %2, i32 0, i32 3
  %m_maxConvexShapes = getelementptr inbounds %struct.b3Config, ptr %m_config, i32 0, i32 1
  %3 = load i32, ptr %m_maxConvexShapes, align 4
  %cmp = icmp slt i32 %1, %3
  br i1 %cmp, label %if.then, label %if.else

if.then:                                          ; preds = %entry
  %m_data3 = getelementptr inbounds %class.b3CpuNarrowPhase, ptr %this1, i32 0, i32 1
  %4 = load ptr, ptr %m_data3, align 8
  %m_collidablesCPU4 = getelementptr inbounds %struct.b3CpuNarrowPhaseInternalData, ptr %4, i32 0, i32 1
  call void @llvm.memset.p0.i64(ptr align 4 %ref.tmp, i8 0, i64 16, i1 false)
  %call5 = call noundef nonnull align 4 dereferenceable(16) ptr @_ZN20b3AlignedObjectArrayI12b3CollidableE6expandERKS0_(ptr noundef nonnull align 8 dereferenceable(25) %m_collidablesCPU4, ptr noundef nonnull align 4 dereferenceable(16) %ref.tmp)
  %5 = load i32, ptr %curSize, align 4
  store i32 %5, ptr %retval, align 4
  br label %return

if.else:                                          ; preds = %entry
  br label %do.body

do.body:                                          ; preds = %if.else
  call void (ptr, ...) @b3OutputErrorMessageVarArgsInternal(ptr noundef @.str, ptr noundef @.str.1, i32 noundef 201)
  %m_data6 = getelementptr inbounds %class.b3CpuNarrowPhase, ptr %this1, i32 0, i32 1
  %6 = load ptr, ptr %m_data6, align 8
  %m_config7 = getelementptr inbounds %struct.b3CpuNarrowPhaseInternalData, ptr %6, i32 0, i32 3
  %m_maxConvexShapes8 = getelementptr inbounds %struct.b3Config, ptr %m_config7, i32 0, i32 1
  %7 = load i32, ptr %m_maxConvexShapes8, align 4
  call void (ptr, ...) @b3OutputErrorMessageVarArgsInternal(ptr noundef @.str.2, i32 noundef %7)
  br label %do.end

do.end:                                           ; preds = %do.body
  br label %if.end

if.end:                                           ; preds = %do.end
  store i32 -1, ptr %retval, align 4
  br label %return

return:                                           ; preds = %if.end, %if.then
  %8 = load i32, ptr %retval, align 4
  ret i32 %8
}