; Function Attrs: mustprogress uwtable
define dso_local noundef i32 @_ZN16b3CpuNarrowPhase18allocateCollidableEv(ptr nocapture noundef nonnull readonly align 8 dereferenceable(28) %this) local_unnamed_addr #2 align 2 {
entry:
  %m_data = getelementptr inbounds i8, ptr %this, i64 8
  %0 = load ptr, ptr %m_data, align 8
  %m_collidablesCPU = getelementptr inbounds i8, ptr %0, i64 32
  %m_size.i = getelementptr inbounds i8, ptr %0, i64 36
  %1 = load i32, ptr %m_size.i, align 4
  %m_maxConvexShapes = getelementptr inbounds i8, ptr %0, i64 100
  %2 = load i32, ptr %m_maxConvexShapes, align 4
  %cmp = icmp slt i32 %1, %2
  br i1 %cmp, label %if.then, label %do.body

if.then:                                          ; preds = %entry
  %m_capacity.i.i = getelementptr inbounds i8, ptr %0, i64 40
  %3 = load i32, ptr %m_capacity.i.i, align 8
  %cmp.i = icmp eq i32 %1, %3
  br i1 %cmp.i, label %if.then.i, label %_ZN20b3AlignedObjectArrayI12b3CollidableE6expandERKS0_.exit

if.then.i:                                        ; preds = %if.then
  %tobool.not.i.i = icmp eq i32 %1, 0
  %mul.i.i = shl nsw i32 %1, 1
  %cond.i.i = select i1 %tobool.not.i.i, i32 1, i32 %mul.i.i
  tail call void @_ZN20b3AlignedObjectArrayI12b3CollidableE7reserveEi(ptr noundef nonnull align 8 dereferenceable(25) %m_collidablesCPU, i32 noundef %cond.i.i)
  %.pre.i = load i32, ptr %m_size.i, align 4
  br label %_ZN20b3AlignedObjectArrayI12b3CollidableE6expandERKS0_.exit

_ZN20b3AlignedObjectArrayI12b3CollidableE6expandERKS0_.exit: ; preds = %if.then, %if.then.i
  %4 = phi i32 [ %.pre.i, %if.then.i ], [ %1, %if.then ]
  %inc.i = add nsw i32 %4, 1
  store i32 %inc.i, ptr %m_size.i, align 4
  %m_data.i = getelementptr inbounds i8, ptr %0, i64 48
  %5 = load ptr, ptr %m_data.i, align 8
  %idxprom.i = sext i32 %1 to i64
  %arrayidx.i = getelementptr inbounds %struct.b3Collidable, ptr %5, i64 %idxprom.i
  tail call void @llvm.memset.p0.i64(ptr noundef nonnull align 4 dereferenceable(16) %arrayidx.i, i8 0, i64 16, i1 false)
  br label %return

do.body:                                          ; preds = %entry
  tail call void (ptr, ...) @b3OutputErrorMessageVarArgsInternal(ptr noundef nonnull @.str, ptr noundef nonnull @.str.1, i32 noundef 201)
  %6 = load ptr, ptr %m_data, align 8
  %m_maxConvexShapes8 = getelementptr inbounds i8, ptr %6, i64 100
  %7 = load i32, ptr %m_maxConvexShapes8, align 4
  tail call void (ptr, ...) @b3OutputErrorMessageVarArgsInternal(ptr noundef nonnull @.str.2, i32 noundef %7)
  br label %return

return:                                           ; preds = %do.body, %_ZN20b3AlignedObjectArrayI12b3CollidableE6expandERKS0_.exit
  %retval.0 = phi i32 [ %1, %_ZN20b3AlignedObjectArrayI12b3CollidableE6expandERKS0_.exit ], [ -1, %do.body ]
  ret i32 %retval.0
}